target datalayout = "e-m:e-p270:32:32-p271:32:32-p272:64:64-i64:64-i128:128-f80:128-n8:16:32:64-S128"
target triple = "x86_64-pc-linux-gnu"

%"struct.Luau::Position" = type { i32, i32 }
%"class.Luau::AstVisitor" = type { ptr }
%"class.Luau::AstNode" = type <{ ptr, i32, %"struct.Luau::Location", [4 x i8] }>
%"struct.Luau::Location" = type { %"struct.Luau::Position", %"struct.Luau::Position" }
%"class.Luau::AstStat.base" = type { %"class.Luau::AstNode.base", i8 }
%"class.Luau::AstNode.base" = type <{ ptr, i32, %"struct.Luau::Location" }>
%"struct.Luau::(anonymous namespace)::FindNode" = type { %"class.Luau::AstVisitor", %"struct.Luau::Position", %"struct.Luau::Position", ptr }
%"class.Luau::AstStatBlock" = type <{ %"class.Luau::AstStat.base", [3 x i8], %"struct.Luau::AstArray.51", i8, [7 x i8] }>
%"struct.Luau::AstArray.51" = type { ptr, i64 }

; Function Attrs: mustprogress nounwind uwtable
define linkonce_odr dso_local noundef ptr @_ZNK4Luau8AstArrayIPNS_7AstStatEE3endEv(ptr noundef nonnull align 8 dereferenceable(16) %0) #2 comdat align 2 {
  %2 = alloca ptr, align 8
  store ptr %0, ptr %2, align 8, !tbaa !103
  %3 = load ptr, ptr %2, align 8
  %4 = getelementptr inbounds nuw %"struct.Luau::AstArray.51", ptr %3, i32 0, i32 0
  %5 = load ptr, ptr %4, align 8, !tbaa !379
  %6 = getelementptr inbounds nuw %"struct.Luau::AstArray.51", ptr %3, i32 0, i32 1
  %7 = load i64, ptr %6, align 8, !tbaa !381
  %8 = getelementptr inbounds nuw ptr, ptr %5, i64 %7
  ret ptr %8
}

; Function Attrs: mustprogress nounwind uwtable
define linkonce_odr dso_local noundef ptr @_ZNK4Luau8AstArrayIPNS_7AstStatEE5beginEv(ptr noundef nonnull align 8 dereferenceable(16) %0) #2 comdat align 2 {
  %2 = alloca ptr, align 8
  store ptr %0, ptr %2, align 8, !tbaa !103
  %3 = load ptr, ptr %2, align 8
  %4 = getelementptr inbounds nuw %"struct.Luau::AstArray.51", ptr %3, i32 0, i32 0
  %5 = load ptr, ptr %4, align 8, !tbaa !379
  ret ptr %5
}

; Function Attrs: inlinehint mustprogress nounwind uwtable
define linkonce_odr dso_local void @_ZN4Luau10AstVisitorC2Ev(ptr noundef nonnull align 8 dereferenceable(8) %0) unnamed_addr #3 comdat align 2 {
  %2 = alloca ptr, align 8
  store ptr %0, ptr %2, align 8, !tbaa !28
  %3 = load ptr, ptr %2, align 8
  store ptr getelementptr inbounds inrange(-16, 496) ({ [64 x ptr] }, ptr @_ZTVN4Luau10AstVisitorE, i32 0, i32 0, i32 2), ptr %3, align 8, !tbaa !13
  ret void
}

; Function Attrs: mustprogress nounwind uwtable
define linkonce_odr dso_local void @_ZN4Luau10AstVisitorD2Ev(ptr noundef nonnull align 8 dereferenceable(8) %0) unnamed_addr #2 comdat align 2 {
  %2 = alloca ptr, align 8
  store ptr %0, ptr %2, align 8, !tbaa !28
  ret void
}

; Function Attrs: mustprogress uwtable
define internal noundef zeroext i1 @_ZN4Luau12_GLOBAL__N_18FindNode5visitEPNS_12AstStatBlockE(ptr noundef nonnull align 8 dereferenceable(32) %0, ptr noundef %1) unnamed_addr #5 align 2 {
  %3 = alloca ptr, align 8
  %4 = alloca ptr, align 8
  %5 = alloca ptr, align 8
  %6 = alloca ptr, align 8
  %7 = alloca ptr, align 8
  %8 = alloca i32, align 4
  %9 = alloca ptr, align 8
  store ptr %0, ptr %3, align 8, !tbaa !101
  store ptr %1, ptr %4, align 8, !tbaa !95
  %10 = load ptr, ptr %3, align 8
  %11 = load ptr, ptr %4, align 8, !tbaa !95
  %12 = load ptr, ptr %10, align 8, !tbaa !13
  %13 = getelementptr inbounds ptr, ptr %12, i64 2
  %14 = load ptr, ptr %13, align 8
  %15 = call noundef zeroext i1 %14(ptr noundef nonnull align 8 dereferenceable(32) %10, ptr noundef %11)
  call void @llvm.lifetime.start.p0(i64 8, ptr %5) #18
  %16 = load ptr, ptr %4, align 8, !tbaa !95
  %17 = getelementptr inbounds nuw %"class.Luau::AstStatBlock", ptr %16, i32 0, i32 2
  store ptr %17, ptr %5, align 8, !tbaa !103
  call void @llvm.lifetime.start.p0(i64 8, ptr %6) #18
  %18 = load ptr, ptr %5, align 8, !tbaa !103
  %19 = call noundef ptr @_ZNK4Luau8AstArrayIPNS_7AstStatEE5beginEv(ptr noundef nonnull align 8 dereferenceable(16) %18)
  store ptr %19, ptr %6, align 8, !tbaa !105
  call void @llvm.lifetime.start.p0(i64 8, ptr %7) #18
  %20 = load ptr, ptr %5, align 8, !tbaa !103
  %21 = call noundef ptr @_ZNK4Luau8AstArrayIPNS_7AstStatEE3endEv(ptr noundef nonnull align 8 dereferenceable(16) %20)
  store ptr %21, ptr %7, align 8, !tbaa !105
  br label %22

22:                                               ; preds = %51, %2
  %23 = load ptr, ptr %6, align 8, !tbaa !105
  %24 = load ptr, ptr %7, align 8, !tbaa !105
  %25 = icmp ne ptr %23, %24
  br i1 %25, label %27, label %26

26:                                               ; preds = %22
  store i32 2, ptr %8, align 4
  br label %54

27:                                               ; preds = %22
  call void @llvm.lifetime.start.p0(i64 8, ptr %9) #18
  %28 = load ptr, ptr %6, align 8, !tbaa !105
  %29 = load ptr, ptr %28, align 8, !tbaa !107
  store ptr %29, ptr %9, align 8, !tbaa !107
  %30 = load ptr, ptr %9, align 8, !tbaa !107
  %31 = getelementptr inbounds nuw %"class.Luau::AstNode", ptr %30, i32 0, i32 2
  %32 = getelementptr inbounds nuw %"struct.Luau::Location", ptr %31, i32 0, i32 1
  %33 = getelementptr inbounds nuw %"struct.Luau::(anonymous namespace)::FindNode", ptr %10, i32 0, i32 1
  %34 = call noundef zeroext i1 @_ZNK4Luau8PositionltERKS0_(ptr noundef nonnull align 4 dereferenceable(8) %32, ptr noundef nonnull align 4 dereferenceable(8) %33)
  br i1 %34, label %35, label %36

35:                                               ; preds = %27
  store i32 3, ptr %8, align 4
  br label %48

36:                                               ; preds = %27
  %37 = load ptr, ptr %9, align 8, !tbaa !107
  %38 = getelementptr inbounds nuw %"class.Luau::AstNode", ptr %37, i32 0, i32 2
  %39 = getelementptr inbounds nuw %"struct.Luau::Location", ptr %38, i32 0, i32 0
  %40 = getelementptr inbounds nuw %"struct.Luau::(anonymous namespace)::FindNode", ptr %10, i32 0, i32 1
  %41 = call noundef zeroext i1 @_ZNK4Luau8PositiongtERKS0_(ptr noundef nonnull align 4 dereferenceable(8) %39, ptr noundef nonnull align 4 dereferenceable(8) %40)
  br i1 %41, label %42, label %43

42:                                               ; preds = %36
  store i32 2, ptr %8, align 4
  br label %48

43:                                               ; preds = %36
  %44 = load ptr, ptr %9, align 8, !tbaa !107
  %45 = load ptr, ptr %44, align 8, !tbaa !13
  %46 = getelementptr inbounds ptr, ptr %45, i64 0
  %47 = load ptr, ptr %46, align 8
  call void %47(ptr noundef nonnull align 8 dereferenceable(28) %44, ptr noundef %10)
  store i32 0, ptr %8, align 4
  br label %48

48:                                               ; preds = %43, %42, %35
  call void @llvm.lifetime.end.p0(i64 8, ptr %9) #18
  %49 = load i32, ptr %8, align 4
  switch i32 %49, label %54 [
    i32 0, label %50
    i32 3, label %51
  ]

50:                                               ; preds = %48
  br label %51

51:                                               ; preds = %50, %48
  %52 = load ptr, ptr %6, align 8, !tbaa !105
  %53 = getelementptr inbounds nuw ptr, ptr %52, i32 1
  store ptr %53, ptr %6, align 8, !tbaa !105
  br label %22

54:                                               ; preds = %48, %26
  call void @llvm.lifetime.end.p0(i64 8, ptr %7) #18
  call void @llvm.lifetime.end.p0(i64 8, ptr %6) #18
  call void @llvm.lifetime.end.p0(i64 8, ptr %5) #18
  br label %55

55:                                               ; preds = %54
  ret i1 false
}

; Function Attrs: mustprogress nounwind uwtable
define internal void @_ZN4Luau12_GLOBAL__N_18FindNodeC2ENS_8PositionES2_(ptr noundef nonnull align 8 dereferenceable(32) %0, i64 %1, i64 %2) unnamed_addr #2 align 2 {
  %4 = alloca %"struct.Luau::Position", align 4
  %5 = alloca %"struct.Luau::Position", align 4
  %6 = alloca ptr, align 8
  store i64 %1, ptr %4, align 4
  store i64 %2, ptr %5, align 4
  store ptr %0, ptr %6, align 8, !tbaa !101
  %7 = load ptr, ptr %6, align 8
  call void @_ZN4Luau10AstVisitorC2Ev(ptr noundef nonnull align 8 dereferenceable(8) %7) #18
  store ptr getelementptr inbounds inrange(-16, 496) ({ [64 x ptr] }, ptr @_ZTVN4Luau12_GLOBAL__N_18FindNodeE, i32 0, i32 0, i32 2), ptr %7, align 8, !tbaa !13
  %8 = getelementptr inbounds nuw %"struct.Luau::(anonymous namespace)::FindNode", ptr %7, i32 0, i32 1
  call void @llvm.memcpy.p0.p0.i64(ptr align 8 %8, ptr align 4 %4, i64 8, i1 false), !tbaa.struct !15
  %9 = getelementptr inbounds nuw %"struct.Luau::(anonymous namespace)::FindNode", ptr %7, i32 0, i32 2
  call void @llvm.memcpy.p0.p0.i64(ptr align 8 %9, ptr align 4 %5, i64 8, i1 false), !tbaa.struct !15
  %10 = getelementptr inbounds nuw %"struct.Luau::(anonymous namespace)::FindNode", ptr %7, i32 0, i32 3
  store ptr null, ptr %10, align 8, !tbaa !99
  ret void
}

; Function Attrs: mustprogress nounwind uwtable
define linkonce_odr dso_local noundef zeroext i1 @_ZNK4Luau8PositiongtERKS0_(ptr noundef nonnull align 4 dereferenceable(8) %0, ptr noundef nonnull align 4 dereferenceable(8) %1) #2 comdat align 2 {
  %3 = alloca i1, align 1
  %4 = alloca ptr, align 8
  %5 = alloca ptr, align 8
  store ptr %0, ptr %4, align 8, !tbaa !49
  store ptr %1, ptr %5, align 8, !tbaa !49
  %6 = load ptr, ptr %4, align 8
  %7 = getelementptr inbounds nuw %"struct.Luau::Position", ptr %6, i32 0, i32 0
  %8 = load i32, ptr %7, align 4, !tbaa !52
  %9 = load ptr, ptr %5, align 8, !tbaa !49
  %10 = getelementptr inbounds nuw %"struct.Luau::Position", ptr %9, i32 0, i32 0
  %11 = load i32, ptr %10, align 4, !tbaa !52
  %12 = icmp eq i32 %8, %11
  br i1 %12, label %13, label %20

13:                                               ; preds = %2
  %14 = getelementptr inbounds nuw %"struct.Luau::Position", ptr %6, i32 0, i32 1
  %15 = load i32, ptr %14, align 4, !tbaa !51
  %16 = load ptr, ptr %5, align 8, !tbaa !49
  %17 = getelementptr inbounds nuw %"struct.Luau::Position", ptr %16, i32 0, i32 1
  %18 = load i32, ptr %17, align 4, !tbaa !51
  %19 = icmp ugt i32 %15, %18
  store i1 %19, ptr %3, align 1
  br label %27

20:                                               ; preds = %2
  %21 = getelementptr inbounds nuw %"struct.Luau::Position", ptr %6, i32 0, i32 0
  %22 = load i32, ptr %21, align 4, !tbaa !52
  %23 = load ptr, ptr %5, align 8, !tbaa !49
  %24 = getelementptr inbounds nuw %"struct.Luau::Position", ptr %23, i32 0, i32 0
  %25 = load i32, ptr %24, align 4, !tbaa !52
  %26 = icmp ugt i32 %22, %25
  store i1 %26, ptr %3, align 1
  br label %27

27:                                               ; preds = %20, %13
  %28 = load i1, ptr %3, align 1
  ret i1 %28
}

; Function Attrs: mustprogress nounwind uwtable
define linkonce_odr dso_local noundef zeroext i1 @_ZNK4Luau8PositionltERKS0_(ptr noundef nonnull align 4 dereferenceable(8) %0, ptr noundef nonnull align 4 dereferenceable(8) %1) #2 comdat align 2 {
  %3 = alloca i1, align 1
  %4 = alloca ptr, align 8
  %5 = alloca ptr, align 8
  store ptr %0, ptr %4, align 8, !tbaa !49
  store ptr %1, ptr %5, align 8, !tbaa !49
  %6 = load ptr, ptr %4, align 8
  %7 = getelementptr inbounds nuw %"struct.Luau::Position", ptr %6, i32 0, i32 0
  %8 = load i32, ptr %7, align 4, !tbaa !52
  %9 = load ptr, ptr %5, align 8, !tbaa !49
  %10 = getelementptr inbounds nuw %"struct.Luau::Position", ptr %9, i32 0, i32 0
  %11 = load i32, ptr %10, align 4, !tbaa !52
  %12 = icmp eq i32 %8, %11
  br i1 %12, label %13, label %20

13:                                               ; preds = %2
  %14 = getelementptr inbounds nuw %"struct.Luau::Position", ptr %6, i32 0, i32 1
  %15 = load i32, ptr %14, align 4, !tbaa !51
  %16 = load ptr, ptr %5, align 8, !tbaa !49
  %17 = getelementptr inbounds nuw %"struct.Luau::Position", ptr %16, i32 0, i32 1
  %18 = load i32, ptr %17, align 4, !tbaa !51
  %19 = icmp ult i32 %15, %18
  store i1 %19, ptr %3, align 1
  br label %27

20:                                               ; preds = %2
  %21 = getelementptr inbounds nuw %"struct.Luau::Position", ptr %6, i32 0, i32 0
  %22 = load i32, ptr %21, align 4, !tbaa !52
  %23 = load ptr, ptr %5, align 8, !tbaa !49
  %24 = getelementptr inbounds nuw %"struct.Luau::Position", ptr %23, i32 0, i32 0
  %25 = load i32, ptr %24, align 4, !tbaa !52
  %26 = icmp ult i32 %22, %25
  store i1 %26, ptr %3, align 1
  br label %27

27:                                               ; preds = %20, %13
  %28 = load i1, ptr %3, align 1
  ret i1 %28
}

; Function Attrs: mustprogress uwtable
define dso_local noundef ptr @_ZN4Luau18findNodeAtPositionEPNS_12AstStatBlockENS_8PositionE(ptr noundef %0, i64 %1) #5 personality ptr @__gxx_personality_v0 {
  %3 = alloca ptr, align 8
  %4 = alloca %"struct.Luau::Position", align 4
  %5 = alloca ptr, align 8
  %6 = alloca %"struct.Luau::Position", align 4
  %7 = alloca i32, align 4
  %8 = alloca %"struct.Luau::(anonymous namespace)::FindNode", align 8
  %9 = alloca %"struct.Luau::Position", align 4
  %10 = alloca %"struct.Luau::Position", align 4
  %11 = alloca ptr, align 8
  %12 = alloca i32, align 4
  store i64 %1, ptr %4, align 4
  store ptr %0, ptr %5, align 8, !tbaa !95
  call void @llvm.lifetime.start.p0(i64 8, ptr %6) #18
  %13 = load ptr, ptr %5, align 8, !tbaa !95
  %14 = getelementptr inbounds nuw %"class.Luau::AstNode", ptr %13, i32 0, i32 2
  %15 = getelementptr inbounds nuw %"struct.Luau::Location", ptr %14, i32 0, i32 1
  call void @llvm.memcpy.p0.p0.i64(ptr align 4 %6, ptr align 4 %15, i64 8, i1 false), !tbaa.struct !15
  %16 = load ptr, ptr %5, align 8, !tbaa !95
  %17 = getelementptr inbounds nuw %"class.Luau::AstNode", ptr %16, i32 0, i32 2
  %18 = getelementptr inbounds nuw %"struct.Luau::Location", ptr %17, i32 0, i32 0
  %19 = call noundef zeroext i1 @_ZNK4Luau8PositionltERKS0_(ptr noundef nonnull align 4 dereferenceable(8) %4, ptr noundef nonnull align 4 dereferenceable(8) %18)
  br i1 %19, label %20, label %22

20:                                               ; preds = %2
  %21 = load ptr, ptr %5, align 8, !tbaa !95
  store ptr %21, ptr %3, align 8
  store i32 1, ptr %7, align 4
  br label %37

22:                                               ; preds = %2
  %23 = call noundef zeroext i1 @_ZNK4Luau8PositiongtERKS0_(ptr noundef nonnull align 4 dereferenceable(8) %4, ptr noundef nonnull align 4 dereferenceable(8) %6)
  br i1 %23, label %24, label %25

24:                                               ; preds = %22
  call void @llvm.memcpy.p0.p0.i64(ptr align 4 %4, ptr align 4 %6, i64 8, i1 false), !tbaa.struct !15
  br label %25

25:                                               ; preds = %24, %22
  call void @llvm.lifetime.start.p0(i64 32, ptr %8) #18
  call void @llvm.memcpy.p0.p0.i64(ptr align 4 %9, ptr align 4 %4, i64 8, i1 false), !tbaa.struct !15
  call void @llvm.memcpy.p0.p0.i64(ptr align 4 %10, ptr align 4 %6, i64 8, i1 false), !tbaa.struct !15
  %26 = load i64, ptr %9, align 4
  %27 = load i64, ptr %10, align 4
  call void @_ZN4Luau12_GLOBAL__N_18FindNodeC2ENS_8PositionES2_(ptr noundef nonnull align 8 dereferenceable(32) %8, i64 %26, i64 %27)
  %28 = load ptr, ptr %5, align 8, !tbaa !95
  %29 = invoke noundef zeroext i1 @_ZN4Luau12_GLOBAL__N_18FindNode5visitEPNS_12AstStatBlockE(ptr noundef nonnull align 8 dereferenceable(32) %8, ptr noundef %28)
          to label %30 unwind label %33

30:                                               ; preds = %25
  %31 = getelementptr inbounds nuw %"struct.Luau::(anonymous namespace)::FindNode", ptr %8, i32 0, i32 3
  %32 = load ptr, ptr %31, align 8, !tbaa !99
  store ptr %32, ptr %3, align 8
  store i32 1, ptr %7, align 4
  call void @_ZN4Luau10AstVisitorD2Ev(ptr noundef nonnull align 8 dereferenceable(32) %8) #18
  call void @llvm.lifetime.end.p0(i64 32, ptr %8) #18
  br label %37

33:                                               ; preds = %25
  %34 = landingpad { ptr, i32 }
          cleanup
  %35 = extractvalue { ptr, i32 } %34, 0
  store ptr %35, ptr %11, align 8
  %36 = extractvalue { ptr, i32 } %34, 1
  store i32 %36, ptr %12, align 4
  call void @_ZN4Luau10AstVisitorD2Ev(ptr noundef nonnull align 8 dereferenceable(32) %8) #18
  call void @llvm.lifetime.end.p0(i64 32, ptr %8) #18
  call void @llvm.lifetime.end.p0(i64 8, ptr %6) #18
  br label %39

37:                                               ; preds = %30, %20
  call void @llvm.lifetime.end.p0(i64 8, ptr %6) #18
  %38 = load ptr, ptr %3, align 8
  ret ptr %38

39:                                               ; preds = %33
  %40 = load ptr, ptr %11, align 8
  %41 = load i32, ptr %12, align 4
  %42 = insertvalue { ptr, i32 } poison, ptr %40, 0
  %43 = insertvalue { ptr, i32 } %42, i32 %41, 1
  resume { ptr, i32 } %43
}