; Function Attrs: mustprogress uwtable
define dso_local noundef ptr @_ZN4Luau18findNodeAtPositionEPNS_12AstStatBlockENS_8PositionE(ptr noundef %0, i64 %1) local_unnamed_addr #4 personality ptr @__gxx_personality_v0 {
  %3 = alloca %"struct.Luau::(anonymous namespace)::FindNode", align 8
  %.sroa.019.0.extract.trunc = trunc i64 %1 to i32
  %.sroa.5.0.extract.shift = lshr i64 %1, 32
  %.sroa.5.0.extract.trunc = trunc nuw i64 %.sroa.5.0.extract.shift to i32
  %4 = getelementptr inbounds nuw i8, ptr %0, i64 12
  %5 = getelementptr inbounds nuw i8, ptr %0, i64 20
  %6 = load i32, ptr %4, align 4, !tbaa !80
  %7 = icmp eq i32 %6, %.sroa.019.0.extract.trunc
  %8 = getelementptr inbounds nuw i8, ptr %0, i64 16
  %9 = load i32, ptr %8, align 4
  %10 = icmp ugt i32 %9, %.sroa.5.0.extract.trunc
  %11 = icmp ugt i32 %6, %.sroa.019.0.extract.trunc
  %.0.i = select i1 %7, i1 %10, i1 %11
  br i1 %.0.i, label %69, label %.noexc10

.noexc10:                                         ; preds = %2
  %12 = load i64, ptr %5, align 4
  %.sroa.7.0.extract.shift = lshr i64 %12, 32
  %.sroa.0.0.extract.trunc = trunc i64 %12 to i32
  %13 = icmp eq i32 %.sroa.019.0.extract.trunc, %.sroa.0.0.extract.trunc
  %14 = icmp samesign ugt i64 %.sroa.5.0.extract.shift, %.sroa.7.0.extract.shift
  %15 = icmp ugt i32 %.sroa.019.0.extract.trunc, %.sroa.0.0.extract.trunc
  %.0.i7 = select i1 %13, i1 %14, i1 %15
  %.sroa.019.0 = select i1 %.0.i7, i64 %12, i64 %1
  %.sroa.5.0 = select i1 %.0.i7, i64 %.sroa.7.0.extract.shift, i64 %.sroa.5.0.extract.shift
  call void @llvm.lifetime.start.p0(i64 32, ptr nonnull %3) #24
  %.sroa.5.0.insert.shift = shl nuw i64 %.sroa.5.0, 32
  %.sroa.019.0.insert.ext = and i64 %.sroa.019.0, 4294967295
  %.sroa.019.0.insert.insert = or disjoint i64 %.sroa.5.0.insert.shift, %.sroa.019.0.insert.ext
  store ptr getelementptr inbounds nuw inrange(-16, 496) (i8, ptr @_ZTVN4Luau12_GLOBAL__N_18FindNodeE, i64 16), ptr %3, align 8, !tbaa !8
  %16 = getelementptr inbounds nuw i8, ptr %3, i64 8
  store i64 %.sroa.019.0.insert.insert, ptr %16, align 8
  %17 = getelementptr inbounds nuw i8, ptr %3, i64 16
  store i64 %12, ptr %17, align 8
  %18 = getelementptr inbounds nuw i8, ptr %3, i64 24
  store ptr null, ptr %18, align 8, !tbaa !81
  %19 = call noundef zeroext i1 @_ZNK4Luau8Location8containsERKNS_8PositionE(ptr noundef nonnull align 4 dereferenceable(16) %4, ptr noundef nonnull align 4 dereferenceable(8) %16)
  br i1 %19, label %.sink.split.i, label %20

20:                                               ; preds = %.noexc10
  %21 = getelementptr inbounds nuw i8, ptr %0, i64 24
  %22 = load i32, ptr %21, align 4, !tbaa !29
  %23 = getelementptr inbounds nuw i8, ptr %3, i64 20
  %24 = load i32, ptr %23, align 4, !tbaa !29
  %25 = icmp eq i32 %22, %24
  %26 = load i32, ptr %5, align 4
  %27 = load i32, ptr %17, align 8
  %28 = icmp eq i32 %26, %27
  %29 = select i1 %25, i1 %28, i1 false
  br i1 %29, label %30, label %.noexc

30:                                               ; preds = %20
  %31 = getelementptr inbounds nuw i8, ptr %3, i64 12
  %32 = load i32, ptr %31, align 4, !tbaa !29
  %33 = icmp eq i32 %32, %22
  %34 = load i32, ptr %16, align 8
  %35 = icmp eq i32 %34, %26
  %36 = select i1 %33, i1 %35, i1 false
  br i1 %36, label %.sink.split.i, label %_ZNK4Luau8PositiongeERKS0_.exit.i

_ZNK4Luau8PositiongeERKS0_.exit.i:                ; preds = %30
  %37 = icmp ugt i32 %32, %22
  %38 = icmp ugt i32 %34, %26
  %.0.i.i.i = select i1 %35, i1 %37, i1 %38
  br i1 %.0.i.i.i, label %.sink.split.i, label %.noexc

.sink.split.i:                                    ; preds = %_ZNK4Luau8PositiongeERKS0_.exit.i, %30, %.noexc10
  store ptr %0, ptr %18, align 8, !tbaa !81
  br label %.noexc

.noexc:                                           ; preds = %.sink.split.i, %_ZNK4Luau8PositiongeERKS0_.exit.i, %20
  %39 = getelementptr inbounds nuw i8, ptr %0, i64 32
  %40 = load ptr, ptr %39, align 8, !tbaa !83
  %41 = getelementptr inbounds nuw i8, ptr %0, i64 40
  %42 = load i64, ptr %41, align 8, !tbaa !86
  %43 = getelementptr inbounds nuw ptr, ptr %40, i64 %42
  %.not15.i = icmp eq i64 %42, 0
  br i1 %.not15.i, label %_ZN4Luau12_GLOBAL__N_18FindNode5visitEPNS_12AstStatBlockE.exit, label %.lr.ph.i

.lr.ph.i:                                         ; preds = %.noexc
  %44 = getelementptr inbounds nuw i8, ptr %3, i64 12
  br label %45

45:                                               ; preds = %.noexc8, %.lr.ph.i
  %.016.i = phi ptr [ %40, %.lr.ph.i ], [ %67, %.noexc8 ]
  %46 = load ptr, ptr %.016.i, align 8, !tbaa !87
  %47 = getelementptr inbounds nuw i8, ptr %46, i64 20
  %48 = load i32, ptr %47, align 4, !tbaa !80
  %49 = load i32, ptr %16, align 8, !tbaa !80
  %50 = icmp eq i32 %48, %49
  %51 = getelementptr inbounds nuw i8, ptr %46, i64 24
  %52 = load i32, ptr %51, align 4
  %53 = load i32, ptr %44, align 4
  %54 = icmp ult i32 %52, %53
  %55 = icmp ult i32 %48, %49
  %.0.i.i = select i1 %50, i1 %54, i1 %55
  br i1 %.0.i.i, label %.noexc8, label %56

56:                                               ; preds = %45
  %57 = getelementptr inbounds nuw i8, ptr %46, i64 12
  %58 = load i32, ptr %57, align 4, !tbaa !80
  %59 = icmp eq i32 %58, %49
  %60 = getelementptr inbounds nuw i8, ptr %46, i64 16
  %61 = load i32, ptr %60, align 4
  %62 = icmp ugt i32 %61, %53
  %63 = icmp ugt i32 %58, %49
  %.0.i13.i = select i1 %59, i1 %62, i1 %63
  br i1 %.0.i13.i, label %_ZN4Luau12_GLOBAL__N_18FindNode5visitEPNS_12AstStatBlockE.exit, label %64

64:                                               ; preds = %56
  %65 = load ptr, ptr %46, align 8, !tbaa !8
  %66 = load ptr, ptr %65, align 8
  call void %66(ptr noundef nonnull align 8 dereferenceable(28) %46, ptr noundef nonnull align 8 dereferenceable(32) %3)
  br label %.noexc8

.noexc8:                                          ; preds = %64, %45
  %67 = getelementptr inbounds nuw i8, ptr %.016.i, i64 8
  %.not.i = icmp eq ptr %67, %43
  br i1 %.not.i, label %_ZN4Luau12_GLOBAL__N_18FindNode5visitEPNS_12AstStatBlockE.exit, label %45

_ZN4Luau12_GLOBAL__N_18FindNode5visitEPNS_12AstStatBlockE.exit: ; preds = %.noexc8, %56, %.noexc
  %68 = load ptr, ptr %18, align 8, !tbaa !81
  call void @llvm.lifetime.end.p0(i64 32, ptr nonnull %3) #24
  br label %69

69:                                               ; preds = %2, %_ZN4Luau12_GLOBAL__N_18FindNode5visitEPNS_12AstStatBlockE.exit
  %.0 = phi ptr [ %68, %_ZN4Luau12_GLOBAL__N_18FindNode5visitEPNS_12AstStatBlockE.exit ], [ %0, %2 ]
  ret ptr %.0
}